; Function Attrs: nounwind sspstrong uwtable
define dso_local i32 @qcow2_flush_caches(ptr noundef %bs) local_unnamed_addr #0 {
entry:
  %opaque.i = getelementptr inbounds nuw i8, ptr %bs, i64 24
  %0 = load ptr, ptr %opaque.i, align 8
  %l2_table_cache.i = getelementptr inbounds nuw i8, ptr %0, i64 80
  %1 = load ptr, ptr %l2_table_cache.i, align 8
  %call.i = tail call i32 @qcow2_cache_write(ptr noundef %bs, ptr noundef %1) #17
  %cmp.i = icmp slt i32 %call.i, 0
  br i1 %cmp.i, label %return, label %if.end.i

if.end.i:                                         ; preds = %entry
  %2 = getelementptr i8, ptr %0, i64 360
  %.val.i = load i64, ptr %2, align 8
  %and.i.i = and i64 %.val.i, 1
  %tobool.not.i.i = icmp eq i64 %and.i.i, 0
  br i1 %tobool.not.i.i, label %if.then2.i, label %if.end

if.then2.i:                                       ; preds = %if.end.i
  %refcount_block_cache.i = getelementptr inbounds nuw i8, ptr %0, i64 88
  %3 = load ptr, ptr %refcount_block_cache.i, align 8
  %call3.i = tail call i32 @qcow2_cache_write(ptr noundef nonnull %bs, ptr noundef %3) #17
  %cmp4.i = icmp slt i32 %call3.i, 0
  br i1 %cmp4.i, label %return, label %if.end

if.end:                                           ; preds = %if.then2.i, %if.end.i
  %file = getelementptr inbounds nuw i8, ptr %bs, i64 16840
  %4 = load ptr, ptr %file, align 8
  %5 = load ptr, ptr %4, align 8
  %call2 = tail call i32 @bdrv_flush(ptr noundef %5) #17
  br label %return

return:                                           ; preds = %if.then2.i, %entry, %if.end
  %retval.0 = phi i32 [ %call2, %if.end ], [ %call3.i, %if.then2.i ], [ %call.i, %entry ]
  ret i32 %retval.0
}